target datalayout = "e-m:e-p270:32:32-p271:32:32-p272:64:64-i64:64-i128:128-f80:128-n8:16:32:64-S128"
target triple = "x86_64-pc-linux-gnu"

%class.FilterExpressionFrame = type <{ %class.AccordionFrame, ptr, i32, [4 x i8] }>
%class.AccordionFrame = type { %class.QFrame, i32, ptr }
%class.QFrame = type { %class.QWidget }
%class.QWidget = type { %class.QObject, %class.QPaintDevice.base, ptr }
%class.QObject = type { ptr, %class.QScopedPointer }
%class.QScopedPointer = type { ptr }
%class.QPaintDevice.base = type <{ ptr, i16 }>
%class.Ui_FilterExpressionFrame = type { ptr, ptr, ptr, ptr, ptr, ptr, ptr, ptr, ptr, ptr, ptr, ptr, ptr, ptr, ptr, ptr }

; Function Attrs: mustprogress null_pointer_is_valid sspstrong uwtable
define void @_ZN21FilterExpressionFrame21on_buttonBox_rejectedEv(ptr noundef align 8 dereferenceable_or_null(68) %0) #0 align 2 {
  %2 = alloca ptr, align 8
  store ptr %0, ptr %2, align 8
  %3 = load ptr, ptr %2, align 8
  %4 = getelementptr inbounds nuw %class.FilterExpressionFrame, ptr %3, i32 0, i32 1
  %5 = load ptr, ptr %4, align 8
  %6 = getelementptr inbounds nuw %class.Ui_FilterExpressionFrame, ptr %5, i32 0, i32 8
  %7 = load ptr, ptr %6, align 8
  call void @_ZN9QLineEdit5clearEv(ptr noundef align 8 dereferenceable_or_null(40) %7)
  %8 = getelementptr inbounds nuw %class.FilterExpressionFrame, ptr %3, i32 0, i32 1
  %9 = load ptr, ptr %8, align 8
  %10 = getelementptr inbounds nuw %class.Ui_FilterExpressionFrame, ptr %9, i32 0, i32 11
  %11 = load ptr, ptr %10, align 8
  call void @_ZN9QLineEdit5clearEv(ptr noundef align 8 dereferenceable_or_null(40) %11)
  %12 = getelementptr inbounds nuw %class.FilterExpressionFrame, ptr %3, i32 0, i32 1
  %13 = load ptr, ptr %12, align 8
  %14 = getelementptr inbounds nuw %class.Ui_FilterExpressionFrame, ptr %13, i32 0, i32 14
  %15 = load ptr, ptr %14, align 8
  call void @_ZN9QLineEdit5clearEv(ptr noundef align 8 dereferenceable_or_null(40) %15)
  %16 = getelementptr inbounds nuw %class.FilterExpressionFrame, ptr %3, i32 0, i32 2
  store i32 -1, ptr %16, align 8
  call void @_ZN14AccordionFrame12animatedHideEv(ptr noundef align 8 dereferenceable_or_null(56) %3)
  ret void
}