; Function Attrs: mustprogress null_pointer_is_valid sspstrong uwtable
define void @_ZN21FilterExpressionFrame21on_buttonBox_rejectedEv(ptr noundef align 8 dereferenceable_or_null(68) initializes((64, 68)) %0) local_unnamed_addr #0 align 2 {
  %2 = getelementptr inbounds nuw i8, ptr %0, i64 56
  %3 = load ptr, ptr %2, align 8
  %4 = getelementptr inbounds nuw i8, ptr %3, i64 64
  %5 = load ptr, ptr %4, align 8
  tail call void @_ZN9QLineEdit5clearEv(ptr noundef align 8 dereferenceable_or_null(40) %5)
  %6 = load ptr, ptr %2, align 8
  %7 = getelementptr inbounds nuw i8, ptr %6, i64 88
  %8 = load ptr, ptr %7, align 8
  tail call void @_ZN9QLineEdit5clearEv(ptr noundef align 8 dereferenceable_or_null(40) %8)
  %9 = load ptr, ptr %2, align 8
  %10 = getelementptr inbounds nuw i8, ptr %9, i64 112
  %11 = load ptr, ptr %10, align 8
  tail call void @_ZN9QLineEdit5clearEv(ptr noundef align 8 dereferenceable_or_null(40) %11)
  %12 = getelementptr inbounds nuw i8, ptr %0, i64 64
  store i32 -1, ptr %12, align 8
  tail call void @_ZN14AccordionFrame12animatedHideEv(ptr noundef align 8 dereferenceable_or_null(56) %0)
  ret void
}